; Function Attrs: mustprogress nounwind uwtable
define internal noundef i32 @_ZN4node12_GLOBAL__N_16Parser5ProxyIMS1_FivEXadL_ZNS1_17on_chunk_completeEvEEE3RawEP18llhttp__internal_s(ptr noundef %p) #3 align 2 {
entry:
  %0 = ptrtoint ptr %p to i64
  %sub.i.i = add i64 %0, -80
  %1 = inttoptr i64 %sub.i.i to ptr
  %header_nread_.i = getelementptr inbounds i8, ptr %1, i64 1808
  store i64 0, ptr %header_nread_.i, align 8
  %pending_pause_.i = getelementptr inbounds i8, ptr %1, i64 1801
  %2 = load i8, ptr %pending_pause_.i, align 1
  %3 = and i8 %2, 1
  %tobool.not.i = icmp eq i8 %3, 0
  br i1 %tobool.not.i, label %_ZN4node12_GLOBAL__N_16Parser10MaybePauseEv.exit, label %if.end.i

if.end.i:                                         ; preds = %entry
  store i8 0, ptr %pending_pause_.i, align 1
  %parser_.i = getelementptr inbounds i8, ptr %1, i64 80
  tail call void @llhttp_set_error_reason(ptr noundef nonnull %parser_.i, ptr noundef nonnull @.str.123) #20
  br label %_ZN4node12_GLOBAL__N_16Parser10MaybePauseEv.exit

_ZN4node12_GLOBAL__N_16Parser10MaybePauseEv.exit: ; preds = %entry, %if.end.i
  %retval.0.i = phi i32 [ 21, %if.end.i ], [ 0, %entry ]
  ret i32 %retval.0.i
}